; Function Attrs: mustprogress uwtable
define hidden void @_ZN19OpenColorIO_v2_5dev12IndexMappingC2Em(ptr noundef nonnull align 8 dereferenceable(88) initializes((0, 88)) %0, i64 noundef %1) unnamed_addr #0 align 2 personality ptr @__gxx_personality_v0 {
  store ptr getelementptr inbounds nuw inrange(-16, 16) (i8, ptr @_ZTVN19OpenColorIO_v2_5dev12IndexMappingE, i64 16), ptr %0, align 8, !tbaa !3
  %3 = getelementptr inbounds nuw i8, ptr %0, i64 8
  store i64 %1, ptr %3, align 8, !tbaa !6
  %scevgep = getelementptr inbounds nuw i8, ptr %0, i64 16
  tail call void @llvm.memset.p0.i64(ptr noundef nonnull align 8 dereferenceable(72) %scevgep, i8 0, i64 72, i1 false)
  invoke void @_ZNSt6vectorISt4pairIffESaIS1_EE6resizeEm(ptr noundef nonnull align 8 dereferenceable(24) %scevgep, i64 noundef %1)
          to label %_ZN19OpenColorIO_v2_5dev12IndexMapping6resizeEm.exit unwind label %4

_ZN19OpenColorIO_v2_5dev12IndexMapping6resizeEm.exit: ; preds = %2
  ret void

4:                                                ; preds = %2
  %5 = landingpad { ptr, i32 }
          cleanup
  br label %6

6:                                                ; preds = %_ZNSt6vectorISt4pairIffESaIS1_EED2Ev.exit, %4
  %.idx5 = phi i64 [ 88, %4 ], [ %.add6, %_ZNSt6vectorISt4pairIffESaIS1_EED2Ev.exit ]
  %.add6 = add nsw i64 %.idx5, -24
  %.ptr8 = getelementptr inbounds i8, ptr %0, i64 %.add6
  %7 = load ptr, ptr %.ptr8, align 8, !tbaa !10
  %.not.i.i.i = icmp eq ptr %7, null
  br i1 %.not.i.i.i, label %_ZNSt6vectorISt4pairIffESaIS1_EED2Ev.exit, label %8

8:                                                ; preds = %6
  %9 = getelementptr inbounds nuw i8, ptr %.ptr8, i64 16
  %10 = load ptr, ptr %9, align 8, !tbaa !14
  %11 = ptrtoint ptr %10 to i64
  %12 = ptrtoint ptr %7 to i64
  %13 = sub i64 %11, %12
  tail call void @_ZdlPvm(ptr noundef nonnull %7, i64 noundef %13) #16
  br label %_ZNSt6vectorISt4pairIffESaIS1_EED2Ev.exit

_ZNSt6vectorISt4pairIffESaIS1_EED2Ev.exit:        ; preds = %6, %8
  %14 = icmp eq i64 %.add6, 16
  br i1 %14, label %15, label %6

15:                                               ; preds = %_ZNSt6vectorISt4pairIffESaIS1_EED2Ev.exit
  resume { ptr, i32 } %5
}